; ModuleID = '56/186.c'
source_filename = "56/186.c"
target datalayout = "e-m:e-p270:32:32-p271:32:32-p272:64:64-i64:64-f80:128-n8:16:32:64-S128"
target triple = "x86_64-pc-linux-gnu"

@.str = private unnamed_addr constant [4 x i8] c"%ld\00", align 1
@.str.1 = private unnamed_addr constant [3 x i8] c"%d\00", align 1
@.str.2 = private unnamed_addr constant [2 x i8] c"\0A\00", align 1

; Function Attrs: noinline nounwind uwtable
define dso_local i32 @main() #0 {
  %1 = alloca i32, align 4
  %2 = alloca i64, align 8
  %3 = alloca [5 x i32], align 16
  %4 = alloca i32, align 4
  %5 = alloca i32, align 4
  store i32 0, i32* %1, align 4
  %6 = call i32 (i8*, ...) @__isoc99_scanf(i8* getelementptr inbounds ([4 x i8], [4 x i8]* @.str, i64 0, i64 0), i64* %2)
  %7 = load i64, i64* %2, align 8
  %8 = sitofp i64 %7 to double
  %9 = call double @log10(double %8) #3
  %10 = fptosi double %9 to i32
  store i32 %10, i32* %4, align 4
  store i32 0, i32* %5, align 4
  br label %11

11:                                               ; preds = %24, %0
  %12 = load i32, i32* %5, align 4
  %13 = load i32, i32* %4, align 4
  %14 = icmp sle i32 %12, %13
  br i1 %14, label %15, label %27

15:                                               ; preds = %11
  %16 = load i64, i64* %2, align 8
  %17 = srem i64 %16, 10
  %18 = trunc i64 %17 to i32
  %19 = load i32, i32* %5, align 4
  %20 = sext i32 %19 to i64
  %21 = getelementptr inbounds [5 x i32], [5 x i32]* %3, i64 0, i64 %20
  store i32 %18, i32* %21, align 4
  %22 = load i64, i64* %2, align 8
  %23 = sdiv i64 %22, 10
  store i64 %23, i64* %2, align 8
  br label %24

24:                                               ; preds = %15
  %25 = load i32, i32* %5, align 4
  %26 = add nsw i32 %25, 1
  store i32 %26, i32* %5, align 4
  br label %11

27:                                               ; preds = %11
  store i32 0, i32* %5, align 4
  br label %28

28:                                               ; preds = %38, %27
  %29 = load i32, i32* %5, align 4
  %30 = load i32, i32* %4, align 4
  %31 = icmp sle i32 %29, %30
  br i1 %31, label %32, label %41

32:                                               ; preds = %28
  %33 = load i32, i32* %5, align 4
  %34 = sext i32 %33 to i64
  %35 = getelementptr inbounds [5 x i32], [5 x i32]* %3, i64 0, i64 %34
  %36 = load i32, i32* %35, align 4
  %37 = call i32 (i8*, ...) @printf(i8* getelementptr inbounds ([3 x i8], [3 x i8]* @.str.1, i64 0, i64 0), i32 %36)
  br label %38

38:                                               ; preds = %32
  %39 = load i32, i32* %5, align 4
  %40 = add nsw i32 %39, 1
  store i32 %40, i32* %5, align 4
  br label %28

41:                                               ; preds = %28
  %42 = call i32 (i8*, ...) @printf(i8* getelementptr inbounds ([2 x i8], [2 x i8]* @.str.2, i64 0, i64 0))
  ret i32 0
}

declare dso_local i32 @__isoc99_scanf(i8*, ...) #1

; Function Attrs: nounwind
declare dso_local double @log10(double) #2

declare dso_local i32 @printf(i8*, ...) #1


!llvm.module.flags = !{!0}
!llvm.ident = !{!1}

!0 = !{i32 1, !"wchar_size", i32 4}
!1 = !{!"clang version 10.0.0-4ubuntu1 "}
